target datalayout = "e-m:e-p270:32:32-p271:32:32-p272:64:64-i64:64-i128:128-f80:128-n8:16:32:64-S128"
target triple = "x86_64-pc-linux-gnu"

%struct.H5O_ainfo_t = type { i8, i8, i32, i64, i64, i64, i64 }
%struct.H5CX_node_t = type { %struct.H5CX_t, ptr }
%struct.H5CX_t = type { i64, ptr, i64, ptr, i64, ptr, i64, ptr, i64, ptr, i64, ptr, i64, i32, i64, i8, ptr, i8, ptr, i8, i32, i8, [3 x double], i8, i64, i8, i32, i8, %struct.H5Z_cb_t, i8, ptr, i8, %struct.H5T_vlen_alloc_info_t, i8, %struct.H5T_conv_cb_t, i8, i32, i8, i8, i8, i32, i8, i8, i32, i8, i8, i32, i8, i32, i8, i64, i8, i8, i8, i8, i8, ptr, i8, ptr, i8, i32, i8, i32, i8, %struct.H5VL_connector_prop_t, i8, ptr, i8 }
%struct.H5Z_cb_t = type { ptr, ptr }
%struct.H5T_vlen_alloc_info_t = type { ptr, ptr, ptr, ptr }
%struct.H5T_conv_cb_t = type { ptr, ptr }
%struct.H5VL_connector_prop_t = type { ptr, ptr }
%struct.H5O_t = type { %struct.H5C_cache_entry_t, i64, i64, i8, i64, i8, i32, i8, i8, i64, i64, i64, i64, i32, i32, i64, i64, ptr, i64, i64, i64, i64, ptr, i8, ptr }
%struct.H5C_cache_entry_t = type { ptr, i64, i64, ptr, i8, ptr, i8, i8, i8, i8, i32, i8, i8, i8, i8, i8, i32, ptr, i32, i32, i32, i32, i32, i8, i8, ptr, ptr, ptr, ptr, ptr, ptr, i8, i32, i8, i64, ptr, i64, i64, i32, i8, i32, i32, i8, ptr, ptr, ptr }
%struct.H5O_loc_t = type { ptr, i64, i8 }

@H5O_init_g = external global i8, align 1
@H5_libterm_g = external global i8, align 1
@.str = private unnamed_addr constant [101 x i8] c"generated/home/dtcxzyw/WorkSpace/Projects/compilers/llvm-opt-benchmark/bench/hdf5/hdf5/src/H5Otest.c\00", align 1
@__func__.H5O__is_attr_dense_test = private unnamed_addr constant [24 x i8] c"H5O__is_attr_dense_test\00", align 1
@H5E_SYM_g = external global i64, align 8
@H5E_NOTFOUND_g = external global i64, align 8
@.str.1 = private unnamed_addr constant [17 x i8] c"object not found\00", align 1
@H5E_OHDR_g = external global i64, align 8
@H5E_CANTSET_g = external global i64, align 8
@.str.2 = private unnamed_addr constant [22 x i8] c"can't set API context\00", align 1
@H5E_CANTPROTECT_g = external global i64, align 8
@.str.3 = private unnamed_addr constant [29 x i8] c"unable to load object header\00", align 1
@H5E_ATTR_g = external global i64, align 8
@H5E_CANTGET_g = external global i64, align 8
@.str.4 = private unnamed_addr constant [39 x i8] c"can't check for attribute info message\00", align 1
@H5E_CANTUNPROTECT_g = external global i64, align 8
@.str.5 = private unnamed_addr constant [32 x i8] c"unable to release object header\00", align 1
@H5E_CANTRESET_g = external global i64, align 8
@.str.6 = private unnamed_addr constant [24 x i8] c"can't reset API context\00", align 1

; Function Attrs: nounwind uwtable
define i32 @H5O__is_attr_dense_test(i64 noundef %0) #0 {
  %2 = alloca i64, align 8
  %3 = alloca ptr, align 8
  %4 = alloca %struct.H5O_ainfo_t, align 8
  %5 = alloca ptr, align 8
  %6 = alloca %struct.H5CX_node_t, align 8
  %7 = alloca i8, align 1
  %8 = alloca i32, align 4
  %9 = alloca i8, align 1
  store i64 %0, ptr %2, align 8, !tbaa !3
  call void @llvm.lifetime.start.p0(i64 8, ptr %3) #5
  store ptr null, ptr %3, align 8, !tbaa !7
  call void @llvm.lifetime.start.p0(i64 40, ptr %4) #5
  call void @llvm.lifetime.start.p0(i64 8, ptr %5) #5
  call void @llvm.lifetime.start.p0(i64 480, ptr %6) #5
  call void @llvm.memset.p0.i64(ptr align 8 %6, i8 0, i64 480, i1 false)
  call void @llvm.lifetime.start.p0(i64 1, ptr %7) #5
  store i8 0, ptr %7, align 1, !tbaa !10
  call void @llvm.lifetime.start.p0(i64 4, ptr %8) #5
  store i32 -1, ptr %8, align 4, !tbaa !12
  call void @llvm.lifetime.start.p0(i64 1, ptr %9) #5
  store i8 0, ptr %9, align 1, !tbaa !10
  %10 = load i8, ptr @H5O_init_g, align 1, !tbaa !10, !range !14, !noundef !15
  %11 = trunc i8 %10 to i1
  br i1 %11, label %16, label %12

12:                                               ; preds = %1
  %13 = load i8, ptr @H5_libterm_g, align 1, !tbaa !10, !range !14, !noundef !15
  %14 = trunc i8 %13 to i1
  %15 = xor i1 %14, true
  br label %16

16:                                               ; preds = %12, %1
  %17 = phi i1 [ true, %1 ], [ %15, %12 ]
  %18 = xor i1 %17, true
  %19 = xor i1 %18, true
  %20 = zext i1 %19 to i32
  %21 = sext i32 %20 to i64
  %22 = call i64 @llvm.expect.i64(i64 %21, i64 1)
  %23 = icmp ne i64 %22, 0
  br i1 %23, label %24, label %180

24:                                               ; preds = %16
  %25 = load i64, ptr %2, align 8, !tbaa !3
  %26 = call ptr @H5O_get_loc(i64 noundef %25)
  store ptr %26, ptr %5, align 8, !tbaa !16
  %27 = icmp eq ptr null, %26
  br i1 %27, label %28, label %47

28:                                               ; preds = %24
  br label %29

29:                                               ; preds = %28
  br label %30

30:                                               ; preds = %29
  br label %31

31:                                               ; preds = %30
  %32 = load i64, ptr @H5E_SYM_g, align 8, !tbaa !3
  %33 = load i64, ptr @H5E_NOTFOUND_g, align 8, !tbaa !3
  %34 = call i32 (ptr, ptr, i32, i64, i64, ptr, ...) @H5E_printf_stack(ptr noundef @.str, ptr noundef @__func__.H5O__is_attr_dense_test, i32 noundef 96, i64 noundef %32, i64 noundef %33, ptr noundef @.str.1)
  br label %35

35:                                               ; preds = %31
  br label %36

36:                                               ; preds = %35
  store i8 1, ptr %9, align 1, !tbaa !10
  %37 = load i8, ptr %9, align 1, !tbaa !10, !range !14, !noundef !15
  %38 = trunc i8 %37 to i1
  %39 = zext i1 %38 to i8
  store i8 %39, ptr %9, align 1, !tbaa !10
  br label %40

40:                                               ; preds = %36
  br label %41

41:                                               ; preds = %40
  br label %42

42:                                               ; preds = %41
  store i32 -1, ptr %8, align 4, !tbaa !12
  br label %133

43:                                               ; No predecessors!
  br label %44

44:                                               ; preds = %43
  br label %45

45:                                               ; preds = %44
  br label %46

46:                                               ; preds = %45
  br label %47

47:                                               ; preds = %46, %24
  %48 = call i32 @H5CX_push(ptr noundef %6)
  %49 = icmp slt i32 %48, 0
  br i1 %49, label %50, label %69

50:                                               ; preds = %47
  br label %51

51:                                               ; preds = %50
  br label %52

52:                                               ; preds = %51
  br label %53

53:                                               ; preds = %52
  %54 = load i64, ptr @H5E_OHDR_g, align 8, !tbaa !3
  %55 = load i64, ptr @H5E_CANTSET_g, align 8, !tbaa !3
  %56 = call i32 (ptr, ptr, i32, i64, i64, ptr, ...) @H5E_printf_stack(ptr noundef @.str, ptr noundef @__func__.H5O__is_attr_dense_test, i32 noundef 100, i64 noundef %54, i64 noundef %55, ptr noundef @.str.2)
  br label %57

57:                                               ; preds = %53
  br label %58

58:                                               ; preds = %57
  store i8 1, ptr %9, align 1, !tbaa !10
  %59 = load i8, ptr %9, align 1, !tbaa !10, !range !14, !noundef !15
  %60 = trunc i8 %59 to i1
  %61 = zext i1 %60 to i8
  store i8 %61, ptr %9, align 1, !tbaa !10
  br label %62

62:                                               ; preds = %58
  br label %63

63:                                               ; preds = %62
  br label %64

64:                                               ; preds = %63
  store i32 -1, ptr %8, align 4, !tbaa !12
  br label %133

65:                                               ; No predecessors!
  br label %66

66:                                               ; preds = %65
  br label %67

67:                                               ; preds = %66
  br label %68

68:                                               ; preds = %67
  br label %69

69:                                               ; preds = %68, %47
  store i8 1, ptr %7, align 1, !tbaa !10
  %70 = load ptr, ptr %5, align 8, !tbaa !16
  %71 = call ptr @H5O_protect(ptr noundef %70, i32 noundef 128, i1 noundef zeroext false)
  store ptr %71, ptr %3, align 8, !tbaa !7
  %72 = icmp eq ptr null, %71
  br i1 %72, label %73, label %92

73:                                               ; preds = %69
  br label %74

74:                                               ; preds = %73
  br label %75

75:                                               ; preds = %74
  br label %76

76:                                               ; preds = %75
  %77 = load i64, ptr @H5E_OHDR_g, align 8, !tbaa !3
  %78 = load i64, ptr @H5E_CANTPROTECT_g, align 8, !tbaa !3
  %79 = call i32 (ptr, ptr, i32, i64, i64, ptr, ...) @H5E_printf_stack(ptr noundef @.str, ptr noundef @__func__.H5O__is_attr_dense_test, i32 noundef 105, i64 noundef %77, i64 noundef %78, ptr noundef @.str.3)
  br label %80

80:                                               ; preds = %76
  br label %81

81:                                               ; preds = %80
  store i8 1, ptr %9, align 1, !tbaa !10
  %82 = load i8, ptr %9, align 1, !tbaa !10, !range !14, !noundef !15
  %83 = trunc i8 %82 to i1
  %84 = zext i1 %83 to i8
  store i8 %84, ptr %9, align 1, !tbaa !10
  br label %85

85:                                               ; preds = %81
  br label %86

86:                                               ; preds = %85
  br label %87

87:                                               ; preds = %86
  store i32 -1, ptr %8, align 4, !tbaa !12
  br label %133

88:                                               ; No predecessors!
  br label %89

89:                                               ; preds = %88
  br label %90

90:                                               ; preds = %89
  br label %91

91:                                               ; preds = %90
  br label %92

92:                                               ; preds = %91, %69
  %93 = getelementptr inbounds nuw %struct.H5O_ainfo_t, ptr %4, i32 0, i32 5
  store i64 -1, ptr %93, align 8, !tbaa !18
  %94 = load ptr, ptr %3, align 8, !tbaa !7
  %95 = getelementptr inbounds nuw %struct.H5O_t, ptr %94, i32 0, i32 7
  %96 = load i8, ptr %95, align 8, !tbaa !20
  %97 = zext i8 %96 to i32
  %98 = icmp sgt i32 %97, 1
  br i1 %98, label %99, label %126

99:                                               ; preds = %92
  %100 = load ptr, ptr %5, align 8, !tbaa !16
  %101 = getelementptr inbounds nuw %struct.H5O_loc_t, ptr %100, i32 0, i32 0
  %102 = load ptr, ptr %101, align 8, !tbaa !32
  %103 = load ptr, ptr %3, align 8, !tbaa !7
  %104 = call i32 @H5A__get_ainfo(ptr noundef %102, ptr noundef %103, ptr noundef %4)
  %105 = icmp slt i32 %104, 0
  br i1 %105, label %106, label %125

106:                                              ; preds = %99
  br label %107

107:                                              ; preds = %106
  br label %108

108:                                              ; preds = %107
  br label %109

109:                                              ; preds = %108
  %110 = load i64, ptr @H5E_ATTR_g, align 8, !tbaa !3
  %111 = load i64, ptr @H5E_CANTGET_g, align 8, !tbaa !3
  %112 = call i32 (ptr, ptr, i32, i64, i64, ptr, ...) @H5E_printf_stack(ptr noundef @.str, ptr noundef @__func__.H5O__is_attr_dense_test, i32 noundef 112, i64 noundef %110, i64 noundef %111, ptr noundef @.str.4)
  br label %113

113:                                              ; preds = %109
  br label %114

114:                                              ; preds = %113
  store i8 1, ptr %9, align 1, !tbaa !10
  %115 = load i8, ptr %9, align 1, !tbaa !10, !range !14, !noundef !15
  %116 = trunc i8 %115 to i1
  %117 = zext i1 %116 to i8
  store i8 %117, ptr %9, align 1, !tbaa !10
  br label %118

118:                                              ; preds = %114
  br label %119

119:                                              ; preds = %118
  br label %120

120:                                              ; preds = %119
  store i32 -1, ptr %8, align 4, !tbaa !12
  br label %133

121:                                              ; No predecessors!
  br label %122

122:                                              ; preds = %121
  br label %123

123:                                              ; preds = %122
  br label %124

124:                                              ; preds = %123
  br label %125

125:                                              ; preds = %124, %99
  br label %126

126:                                              ; preds = %125, %92
  %127 = getelementptr inbounds nuw %struct.H5O_ainfo_t, ptr %4, i32 0, i32 5
  %128 = load i64, ptr %127, align 8, !tbaa !18
  %129 = icmp ne i64 %128, -1
  br i1 %129, label %130, label %131

130:                                              ; preds = %126
  store i32 1, ptr %8, align 4, !tbaa !12
  br label %132

131:                                              ; preds = %126
  store i32 0, ptr %8, align 4, !tbaa !12
  br label %132

132:                                              ; preds = %131, %130
  br label %133

133:                                              ; preds = %132, %120, %87, %64, %42
  %134 = load ptr, ptr %3, align 8, !tbaa !7
  %135 = icmp ne ptr %134, null
  br i1 %135, label %136, label %157

136:                                              ; preds = %133
  %137 = load ptr, ptr %5, align 8, !tbaa !16
  %138 = load ptr, ptr %3, align 8, !tbaa !7
  %139 = call i32 @H5O_unprotect(ptr noundef %137, ptr noundef %138, i32 noundef 0)
  %140 = icmp slt i32 %139, 0
  br i1 %140, label %141, label %157

141:                                              ; preds = %136
  br label %142

142:                                              ; preds = %141
  br label %143

143:                                              ; preds = %142
  br label %144

144:                                              ; preds = %143
  %145 = load i64, ptr @H5E_OHDR_g, align 8, !tbaa !3
  %146 = load i64, ptr @H5E_CANTUNPROTECT_g, align 8, !tbaa !3
  %147 = call i32 (ptr, ptr, i32, i64, i64, ptr, ...) @H5E_printf_stack(ptr noundef @.str, ptr noundef @__func__.H5O__is_attr_dense_test, i32 noundef 127, i64 noundef %145, i64 noundef %146, ptr noundef @.str.5)
  br label %148

148:                                              ; preds = %144
  br label %149

149:                                              ; preds = %148
  store i8 1, ptr %9, align 1, !tbaa !10
  %150 = load i8, ptr %9, align 1, !tbaa !10, !range !14, !noundef !15
  %151 = trunc i8 %150 to i1
  %152 = zext i1 %151 to i8
  store i8 %152, ptr %9, align 1, !tbaa !10
  br label %153

153:                                              ; preds = %149
  br label %154

154:                                              ; preds = %153
  store i32 -1, ptr %8, align 4, !tbaa !12
  br label %155

155:                                              ; preds = %154
  br label %156

156:                                              ; preds = %155
  br label %157

157:                                              ; preds = %156, %136, %133
  %158 = load i8, ptr %7, align 1, !tbaa !10, !range !14, !noundef !15
  %159 = trunc i8 %158 to i1
  br i1 %159, label %160, label %179

160:                                              ; preds = %157
  %161 = call i32 @H5CX_pop(i1 noundef zeroext false)
  %162 = icmp slt i32 %161, 0
  br i1 %162, label %163, label %179

163:                                              ; preds = %160
  br label %164

164:                                              ; preds = %163
  br label %165

165:                                              ; preds = %164
  br label %166

166:                                              ; preds = %165
  %167 = load i64, ptr @H5E_OHDR_g, align 8, !tbaa !3
  %168 = load i64, ptr @H5E_CANTRESET_g, align 8, !tbaa !3
  %169 = call i32 (ptr, ptr, i32, i64, i64, ptr, ...) @H5E_printf_stack(ptr noundef @.str, ptr noundef @__func__.H5O__is_attr_dense_test, i32 noundef 129, i64 noundef %167, i64 noundef %168, ptr noundef @.str.6)
  br label %170

170:                                              ; preds = %166
  br label %171

171:                                              ; preds = %170
  store i8 1, ptr %9, align 1, !tbaa !10
  %172 = load i8, ptr %9, align 1, !tbaa !10, !range !14, !noundef !15
  %173 = trunc i8 %172 to i1
  %174 = zext i1 %173 to i8
  store i8 %174, ptr %9, align 1, !tbaa !10
  br label %175

175:                                              ; preds = %171
  br label %176

176:                                              ; preds = %175
  store i32 -1, ptr %8, align 4, !tbaa !12
  br label %177

177:                                              ; preds = %176
  br label %178

178:                                              ; preds = %177
  br label %179

179:                                              ; preds = %178, %160, %157
  br label %180

180:                                              ; preds = %179, %16
  %181 = load i32, ptr %8, align 4, !tbaa !12
  call void @llvm.lifetime.end.p0(i64 1, ptr %9) #5
  call void @llvm.lifetime.end.p0(i64 4, ptr %8) #5
  call void @llvm.lifetime.end.p0(i64 1, ptr %7) #5
  call void @llvm.lifetime.end.p0(i64 480, ptr %6) #5
  call void @llvm.lifetime.end.p0(i64 8, ptr %5) #5
  call void @llvm.lifetime.end.p0(i64 40, ptr %4) #5
  call void @llvm.lifetime.end.p0(i64 8, ptr %3) #5
  ret i32 %181
}