; Function Attrs: nounwind uwtable
define range(i32 -1, 2) i32 @H5O__is_attr_dense_test(i64 noundef %0) local_unnamed_addr #0 {
  %2 = alloca %struct.H5O_ainfo_t, align 8
  %3 = alloca %struct.H5CX_node_t, align 8
  call void @llvm.lifetime.start.p0(i64 40, ptr nonnull %2) #4
  call void @llvm.lifetime.start.p0(i64 480, ptr nonnull %3) #4
  call void @llvm.memset.p0.i64(ptr noundef nonnull align 8 dereferenceable(480) %3, i8 0, i64 480, i1 false)
  %4 = load i8, ptr @H5O_init_g, align 1, !tbaa !3, !range !7, !noundef !8
  %5 = trunc nuw i8 %4 to i1
  %6 = load i8, ptr @H5_libterm_g, align 1, !range !7
  %7 = trunc nuw i8 %6 to i1
  %8 = xor i1 %7, true
  %9 = select i1 %5, i1 true, i1 %8
  br i1 %9, label %10, label %.thread32, !prof !9

10:                                               ; preds = %1
  %11 = tail call ptr @H5O_get_loc(i64 noundef %0) #4
  %12 = icmp eq ptr %11, null
  br i1 %12, label %13, label %17

13:                                               ; preds = %10
  %14 = load i64, ptr @H5E_SYM_g, align 8, !tbaa !10
  %15 = load i64, ptr @H5E_NOTFOUND_g, align 8, !tbaa !10
  %16 = tail call i32 (ptr, ptr, i32, i64, i64, ptr, ...) @H5E_printf_stack(ptr noundef nonnull @.str, ptr noundef nonnull @__func__.H5O__is_attr_dense_test, i32 noundef 96, i64 noundef %14, i64 noundef %15, ptr noundef nonnull @.str.1) #4
  br label %.thread32

17:                                               ; preds = %10
  %18 = call i32 @H5CX_push(ptr noundef nonnull %3) #4
  %19 = icmp slt i32 %18, 0
  br i1 %19, label %20, label %24

20:                                               ; preds = %17
  %21 = load i64, ptr @H5E_OHDR_g, align 8, !tbaa !10
  %22 = load i64, ptr @H5E_CANTSET_g, align 8, !tbaa !10
  %23 = call i32 (ptr, ptr, i32, i64, i64, ptr, ...) @H5E_printf_stack(ptr noundef nonnull @.str, ptr noundef nonnull @__func__.H5O__is_attr_dense_test, i32 noundef 100, i64 noundef %21, i64 noundef %22, ptr noundef nonnull @.str.2) #4
  br label %.thread32

24:                                               ; preds = %17
  %25 = call ptr @H5O_protect(ptr noundef nonnull %11, i32 noundef 128, i1 noundef zeroext false) #4
  %26 = icmp eq ptr %25, null
  br i1 %26, label %49, label %27

27:                                               ; preds = %24
  %28 = getelementptr inbounds nuw i8, ptr %2, i64 24
  store i64 -1, ptr %28, align 8, !tbaa !12
  %29 = getelementptr inbounds nuw i8, ptr %25, i64 288
  %30 = load i8, ptr %29, align 8, !tbaa !15
  %31 = icmp ugt i8 %30, 1
  br i1 %31, label %32, label %42

32:                                               ; preds = %27
  %33 = load ptr, ptr %11, align 8, !tbaa !28
  %34 = call i32 @H5A__get_ainfo(ptr noundef %33, ptr noundef nonnull %25, ptr noundef nonnull %2) #4
  %35 = icmp slt i32 %34, 0
  br i1 %35, label %38, label %._crit_edge

._crit_edge:                                      ; preds = %32
  %.pre = load i64, ptr %28, align 8, !tbaa !12
  %36 = icmp ne i64 %.pre, -1
  %37 = zext i1 %36 to i32
  br label %42

38:                                               ; preds = %32
  %39 = load i64, ptr @H5E_ATTR_g, align 8, !tbaa !10
  %40 = load i64, ptr @H5E_CANTGET_g, align 8, !tbaa !10
  %41 = call i32 (ptr, ptr, i32, i64, i64, ptr, ...) @H5E_printf_stack(ptr noundef nonnull @.str, ptr noundef nonnull @__func__.H5O__is_attr_dense_test, i32 noundef 112, i64 noundef %39, i64 noundef %40, ptr noundef nonnull @.str.4) #4
  br label %42

42:                                               ; preds = %27, %._crit_edge, %38
  %.1 = phi i32 [ -1, %38 ], [ %37, %._crit_edge ], [ 0, %27 ]
  %43 = call i32 @H5O_unprotect(ptr noundef nonnull %11, ptr noundef nonnull %25, i32 noundef 0) #4
  %44 = icmp slt i32 %43, 0
  br i1 %44, label %45, label %.thread27

45:                                               ; preds = %42
  %46 = load i64, ptr @H5E_OHDR_g, align 8, !tbaa !10
  %47 = load i64, ptr @H5E_CANTUNPROTECT_g, align 8, !tbaa !10
  %48 = call i32 (ptr, ptr, i32, i64, i64, ptr, ...) @H5E_printf_stack(ptr noundef nonnull @.str, ptr noundef nonnull @__func__.H5O__is_attr_dense_test, i32 noundef 127, i64 noundef %46, i64 noundef %47, ptr noundef nonnull @.str.5) #4
  br label %.thread27

49:                                               ; preds = %24
  %50 = load i64, ptr @H5E_OHDR_g, align 8, !tbaa !10
  %51 = load i64, ptr @H5E_CANTPROTECT_g, align 8, !tbaa !10
  %52 = call i32 (ptr, ptr, i32, i64, i64, ptr, ...) @H5E_printf_stack(ptr noundef nonnull @.str, ptr noundef nonnull @__func__.H5O__is_attr_dense_test, i32 noundef 105, i64 noundef %50, i64 noundef %51, ptr noundef nonnull @.str.3) #4
  br label %.thread27

.thread27:                                        ; preds = %42, %45, %49
  %.230 = phi i32 [ -1, %49 ], [ %.1, %42 ], [ -1, %45 ]
  %53 = call i32 @H5CX_pop(i1 noundef zeroext false) #4
  %54 = icmp slt i32 %53, 0
  br i1 %54, label %55, label %.thread32

55:                                               ; preds = %.thread27
  %56 = load i64, ptr @H5E_OHDR_g, align 8, !tbaa !10
  %57 = load i64, ptr @H5E_CANTRESET_g, align 8, !tbaa !10
  %58 = call i32 (ptr, ptr, i32, i64, i64, ptr, ...) @H5E_printf_stack(ptr noundef nonnull @.str, ptr noundef nonnull @__func__.H5O__is_attr_dense_test, i32 noundef 129, i64 noundef %56, i64 noundef %57, ptr noundef nonnull @.str.6) #4
  br label %.thread32

.thread32:                                        ; preds = %13, %20, %.thread27, %55, %1
  %.0 = phi i32 [ -1, %55 ], [ %.230, %.thread27 ], [ -1, %1 ], [ -1, %20 ], [ -1, %13 ]
  call void @llvm.lifetime.end.p0(i64 480, ptr nonnull %3) #4
  call void @llvm.lifetime.end.p0(i64 40, ptr nonnull %2) #4
  ret i32 %.0
}